; Function Attrs: nounwind uwtable
define internal void @SDL_CleanupWindowTextureData(ptr readnone captures(none) %0, ptr noundef %1) #0 {
  %3 = getelementptr inbounds nuw i8, ptr %1, i64 8
  %4 = load ptr, ptr %3, align 8
  %.not = icmp eq ptr %4, null
  br i1 %.not, label %6, label %5

5:                                                ; preds = %2
  tail call void @SDL_DestroyTexture_REAL(ptr noundef nonnull %4) #19
  br label %6

6:                                                ; preds = %5, %2
  %7 = load ptr, ptr %1, align 8
  %.not8 = icmp eq ptr %7, null
  br i1 %.not8, label %9, label %8

8:                                                ; preds = %6
  tail call void @SDL_DestroyRenderer_REAL(ptr noundef nonnull %7) #19
  br label %9

9:                                                ; preds = %8, %6
  %10 = getelementptr inbounds nuw i8, ptr %1, i64 16
  %11 = load ptr, ptr %10, align 8
  tail call void @SDL_free_REAL(ptr noundef %11) #19
  tail call void @SDL_free_REAL(ptr noundef nonnull %1) #19
  ret void
}